target datalayout = "e-m:e-p270:32:32-p271:32:32-p272:64:64-i64:64-i128:128-f80:128-n8:16:32:64-S128"
target triple = "x86_64-unknown-linux-gnu"

%struct.vhost_net = type { %struct.vhost_dev, [2 x %struct.vhost_virtqueue], i32, ptr }
%struct.vhost_dev = type { ptr, %struct.MemoryListener, %struct.MemoryListener, ptr, i32, ptr, i32, ptr, ptr, i32, i32, i32, i32, i64, i64, i64, i64, i64, i64, i8, i8, i64, ptr, ptr, ptr, ptr, %struct.anon, %struct.anon.1, %struct.IOMMUNotifier, ptr }
%struct.MemoryListener = type { ptr, ptr, ptr, ptr, ptr, ptr, ptr, ptr, ptr, ptr, ptr, ptr, ptr, ptr, ptr, ptr, ptr, i32, ptr, ptr, %union.anon, %union.anon.0 }
%union.anon = type { %struct.QTailQLink }
%struct.QTailQLink = type { ptr, ptr }
%union.anon.0 = type { %struct.QTailQLink }
%struct.anon = type { ptr, ptr }
%struct.anon.1 = type { ptr }
%struct.IOMMUNotifier = type { ptr, i32, i64, i64, i32, %struct.anon.2 }
%struct.anon.2 = type { ptr, ptr }
%struct.vhost_virtqueue = type { i32, i32, ptr, ptr, ptr, i32, i64, i32, i64, i32, i64, i32, %struct.EventNotifier, %struct.EventNotifier, %struct.EventNotifier, ptr }
%struct.EventNotifier = type { i32, i32, i8 }
%struct.NetClientState = type { ptr, i32, %union.anon.3, ptr, ptr, ptr, ptr, [256 x i8], i8, ptr, i32, i8, i32, i32, i8, i8, i8, %union.anon.4 }
%union.anon.3 = type { %struct.QTailQLink }
%union.anon.4 = type { %struct.QTailQLink }
%struct.NetClientInfo = type { i32, i64, ptr, ptr, ptr, ptr, ptr, ptr, ptr, ptr, ptr, ptr, ptr, ptr, ptr, ptr, ptr, ptr, ptr, ptr, ptr, ptr, ptr, ptr, ptr, ptr, ptr }

@kernel_feature_bits = internal constant [11 x i32] [i32 24, i32 28, i32 29, i32 15, i32 32, i32 3, i32 33, i32 34, i32 40, i32 57, i32 255], align 16
@user_feature_bits = internal constant [29 x i32] [i32 24, i32 28, i32 29, i32 27, i32 32, i32 0, i32 1, i32 6, i32 7, i32 8, i32 9, i32 10, i32 11, i32 12, i32 13, i32 14, i32 15, i32 3, i32 33, i32 34, i32 40, i32 60, i32 57, i32 54, i32 55, i32 56, i32 21, i32 22, i32 255], align 16
@vdpa_feature_bits = external constant [0 x i32], align 4
@.str.13 = private unnamed_addr constant [43 x i8] c"Feature bits not defined for this type: %d\00", align 1

; Function Attrs: nounwind sspstrong uwtable
define internal ptr @vhost_net_get_feature_bits(ptr noundef %net) #0 {
entry:
  %net.addr = alloca ptr, align 8
  %feature_bits = alloca ptr, align 8
  store ptr %net, ptr %net.addr, align 8
  store ptr null, ptr %feature_bits, align 8
  %0 = load ptr, ptr %net.addr, align 8
  %nc = getelementptr inbounds %struct.vhost_net, ptr %0, i32 0, i32 3
  %1 = load ptr, ptr %nc, align 8
  %info = getelementptr inbounds %struct.NetClientState, ptr %1, i32 0, i32 0
  %2 = load ptr, ptr %info, align 8
  %type = getelementptr inbounds %struct.NetClientInfo, ptr %2, i32 0, i32 0
  %3 = load i32, ptr %type, align 8
  switch i32 %3, label %sw.default [
    i32 3, label %sw.bb
    i32 12, label %sw.bb1
    i32 13, label %sw.bb2
  ]

sw.bb:                                            ; preds = %entry
  store ptr @kernel_feature_bits, ptr %feature_bits, align 8
  br label %sw.epilog

sw.bb1:                                           ; preds = %entry
  store ptr @user_feature_bits, ptr %feature_bits, align 8
  br label %sw.epilog

sw.bb2:                                           ; preds = %entry
  store ptr @vdpa_feature_bits, ptr %feature_bits, align 8
  br label %sw.epilog

sw.default:                                       ; preds = %entry
  %4 = load ptr, ptr %net.addr, align 8
  %nc3 = getelementptr inbounds %struct.vhost_net, ptr %4, i32 0, i32 3
  %5 = load ptr, ptr %nc3, align 8
  %info4 = getelementptr inbounds %struct.NetClientState, ptr %5, i32 0, i32 0
  %6 = load ptr, ptr %info4, align 8
  %type5 = getelementptr inbounds %struct.NetClientInfo, ptr %6, i32 0, i32 0
  %7 = load i32, ptr %type5, align 8
  call void (ptr, ...) @error_report(ptr noundef @.str.13, i32 noundef %7)
  br label %sw.epilog

sw.epilog:                                        ; preds = %sw.default, %sw.bb2, %sw.bb1, %sw.bb
  %8 = load ptr, ptr %feature_bits, align 8
  ret ptr %8
}

; Function Attrs: nounwind sspstrong uwtable
define dso_local i64 @vhost_net_get_features(ptr noundef %net, i64 noundef %features) #0 {
entry:
  %net.addr = alloca ptr, align 8
  %features.addr = alloca i64, align 8
  store ptr %net, ptr %net.addr, align 8
  store i64 %features, ptr %features.addr, align 8
  %0 = load ptr, ptr %net.addr, align 8
  %dev = getelementptr inbounds %struct.vhost_net, ptr %0, i32 0, i32 0
  %1 = load ptr, ptr %net.addr, align 8
  %call = call ptr @vhost_net_get_feature_bits(ptr noundef %1)
  %2 = load i64, ptr %features.addr, align 8
  %call1 = call i64 @vhost_get_features(ptr noundef %dev, ptr noundef %call, i64 noundef %2)
  ret i64 %call1
}